target datalayout = "e-m:e-p270:32:32-p271:32:32-p272:64:64-i64:64-i128:128-f80:128-n8:16:32:64-S128"
target triple = "x86_64-unknown-linux-gnu"

%"class.EA::StdC::DateTime" = type <{ i64, i32, [4 x i8] }>

; Function Attrs: mustprogress nounwind uwtable
define dso_local noundef i64 @_ZNK2EA4StdC8DateTime15GetMillisecondsEv(ptr noundef nonnull align 8 dereferenceable(12) %this) #3 align 2 {
entry:
  %this.addr = alloca ptr, align 8
  store ptr %this, ptr %this.addr, align 8
  %this1 = load ptr, ptr %this.addr, align 8
  %mnSeconds = getelementptr inbounds %"class.EA::StdC::DateTime", ptr %this1, i32 0, i32 0
  %0 = load i64, ptr %mnSeconds, align 8
  %mul = mul i64 %0, 1000
  %mnNanosecond = getelementptr inbounds %"class.EA::StdC::DateTime", ptr %this1, i32 0, i32 1
  %1 = load i32, ptr %mnNanosecond, align 8
  %div = udiv i32 %1, 1000000
  %conv = zext i32 %div to i64
  %add = add i64 %mul, %conv
  ret i64 %add
}