; Function Attrs: mustprogress nofree norecurse nosync nounwind willreturn memory(argmem: read) uwtable
define dso_local noundef i64 @_ZNK2EA4StdC8DateTime15GetMillisecondsEv(ptr noundef nonnull readonly align 8 captures(none) dereferenceable(12) %this) local_unnamed_addr #10 align 2 {
entry:
  %0 = load i64, ptr %this, align 8
  %mul = mul i64 %0, 1000
  %mnNanosecond = getelementptr inbounds nuw i8, ptr %this, i64 8
  %1 = load i32, ptr %mnNanosecond, align 8
  %div = udiv i32 %1, 1000000
  %conv = zext nneg i32 %div to i64
  %add = add i64 %mul, %conv
  ret i64 %add
}